---------------------------------------------
OSHONSOFT Z80 ASSEMBLER LISTING
Line   Addr Opcode      Label   Instruction
---------------------------------------------
0001   0000             ;autor_Israel Hernandez Alvarez
0002   0000             ;inicio de secion con nip y con numero de intentos
0003   0000             
0004   0000             	.org 0000h;inicio
0005   0000 3E 89       	ld a,89h
0006   0002 D3 03       	out (cw),a
0007   0004             inicio:
0008   0004 21 01 20    	ld hl,text1
0009   0007 CD 10 00    	call muestra
0010   000A CD 1D 00    	call clave
0011   000D CD 4A 00    	call compara
0012   0010             
0013   0010             muestra:
0014   0010             
0015   0010 7E          	ld a,(hl)
0016   0011 FE 26       	cp "&"
0017   0013 CA 1C 00    	jp z, listo
0018   0016 D3 00       	out (lcd),a
0019   0018 23          	inc hl
0020   0019 C3 10 00    	jp muestra
0021   001C             
0022   001C             listo:
0023   001C C9          	ret
0024   001D             
0025   001D             
0026   001D             clave:
0027   001D 21 64 20    	ld hl,passw
0028   0020 06 04       	ld b,4
0029   0022             
0030   0022 CD 26 00    	call leer
0031   0025 C9          	ret
0032   0026             
0033   0026             leer:
0034   0026 DB 01       	in a,(nip)
0035   0028 FE 30       	cp 30h;comparacion para checar si es numero
0036   002A DA 3B 00    	jp c, letra
0037   002D FE 3A       	cp 3Ah
0038   002F D2 3B 00    	jp nc,letra
0039   0032 77          	ld (hl),a
0040   0033 3E 2A       	ld a, 2ah;cambia el valor ingresado por un * y lo muestra
0041   0035 D3 00       	out (LCD), a
0042   0037 23          	inc hl
0043   0038 10 EC       	djnz leer
0044   003A C9          	ret
0045   003B             letra:
0046   003B 21 2D 20    	ld hl, text4
0047   003E             le:
0048   003E 7E          	ld a,(hl)
0049   003F FE 26       	cp "&"
0050   0041 CA 1D 00    	jp z, clave
0051   0044 D3 00       	out (lcd),a
0052   0046 23          	inc hl
0053   0047 C3 3E 00    	jp le
0054   004A             
0055   004A             compara:
0056   004A 21 64 20    	ld hl, passw
0057   004D 11 68 20    	ld de, contra
0058   0050 06 04       	ld b,4
0059   0052 CD 58 00    	call com
0060   0055 CD 63 00    	call bien
0061   0058             com:
0062   0058 1A          	ld a,(de)
0063   0059 4E          	ld c,(hl)
0064   005A B9          	cp c
0065   005B C2 72 00    	jp nz, mal
0066   005E 23          	inc hl
0067   005F 13          	inc de
0068   0060 10 F6       	djnz com
0069   0062 C9          	ret
0070   0063             
0071   0063             
0072   0063             bien:
0073   0063 21 22 20    	ld hl, text3
0074   0066             nipb:
0075   0066 7E          	ld a,(hl)
0076   0067 FE 26       	cp "&"
0077   0069 CA 6D 20    	jp z, fin
0078   006C D3 00       	out (lcd),a
0079   006E 23          	inc hl
0080   006F C3 66 00    	jp nipb
0081   0072             mal:
0082   0072 21 0F 20    	ld hl, text2
0083   0075 11 00 20    	ld de, conta
0084   0078 1A          	ld a, (de)
0085   0079 3D          	dec a
0086   007A 12          	ld (de),a
0087   007B FE 00       	cp 0
0088   007D CA 8C 00    	jp z, fallo
0089   0080             
0090   0080             nipm:
0091   0080 7E          	ld a,(hl)
0092   0081 FE 26       	cp "&"
0093   0083 CA 04 00    	jp z, inicio
0094   0086 D3 00       	out (lcd),a
0095   0088 23          	inc hl
0096   0089 C3 80 00    	jp nipm
0097   008C             
0098   008C             fallo:
0099   008C 21 47 20    	ld hl, text5
0100   008F             
0101   008F             fa:
0102   008F 7E          	ld a,(hl)
0103   0090 FE 26       	cp "&"
0104   0092 CA 6D 20    	jp z, fin
0105   0095 D3 00       	out (lcd),a
0106   0097 23          	inc hl
0107   0098 C3 8F 00    	jp fa
0108   009B             
0109   009B             
0110   009B             
0111   009B             ;--------------------------------
0112   009B             	.org 2000h
0113   2000             ;puertos
0114   2000             lcd:	.equ 00h
0115   2000             nip:	.equ 01h
0116   2000             cw:	.equ 03h
0117   2000             ;variables
0118   2000 03          conta	.db 03h
0119   2001 69 6E 67 72 text1	.db "ingrese nip: &"
0119   2005 65 73 65 20 
0119   2009 6E 69 70 3A 
0119   200D 20 26       
0120   200F 69 6E 74 65 text2	.db "intente nuevamente&"
0120   2013 6E 74 65 20 
0120   2017 6E 75 65 76 
0120   201B 61 6D 65 6E 
0120   201F 74 65 26    
0121   2022 62 69 65 6E text3	.db "bienvenido&"
0121   2026 76 65 6E 69 
0121   202A 64 6F 26    
0122   202D 69 6E 67 72 text4:	.db "ingrese solamente numeros&"
0122   2031 65 73 65 20 
0122   2035 73 6F 6C 61 
0122   2039 6D 65 6E 74 
0122   203D 65 20 6E 75 
0122   2041 6D 65 72 6F 
0122   2045 73 26       
0123   2047 64 65 6D 61 text5:	.db "demasiados intentos fallidos&"
0123   204B 73 69 61 64 
0123   204F 6F 73 20 69 
0123   2053 6E 74 65 6E 
0123   2057 74 6F 73 20 
0123   205B 66 61 6C 6C 
0123   205F 69 64 6F 73 
0123   2063 26          
0124   2064             
0125   2064 00 00 00 00 passw	.db 00h, 00h, 00h, 00h
0126   2068 31 32 33 34 contra	.db "1234"
0127   206C 34          int	.db "4"
0128   206D             
0129   206D             
0130   206D             fin:
0131   206D             	.end
Number of errors = 0
